; ModuleID = '21/217.c'
source_filename = "21/217.c"
target datalayout = "e-m:e-p270:32:32-p271:32:32-p272:64:64-i64:64-f80:128-n8:16:32:64-S128"
target triple = "x86_64-pc-linux-gnu"

@.str = private unnamed_addr constant [3 x i8] c"%d\00", align 1
@.str.1 = private unnamed_addr constant [4 x i8] c"%d\0A\00", align 1
@.str.2 = private unnamed_addr constant [7 x i8] c"%d,%d\0A\00", align 1

; Function Attrs: noinline nounwind uwtable
define dso_local void @main() #0 {
  %1 = alloca i32, align 4
  %2 = alloca [50 x i32], align 16
  %3 = alloca i32, align 4
  %4 = alloca i32, align 4
  %5 = alloca i32, align 4
  %6 = alloca i32, align 4
  %7 = alloca float, align 4
  %8 = alloca float, align 4
  %9 = alloca float, align 4
  store i32 0, i32* %3, align 4
  store i32 0, i32* %5, align 4
  %10 = call i32 (i8*, ...) @__isoc99_scanf(i8* getelementptr inbounds ([3 x i8], [3 x i8]* @.str, i64 0, i64 0), i32* %1)
  store i32 0, i32* %3, align 4
  br label %11

11:                                               ; preds = %26, %0
  %12 = load i32, i32* %3, align 4
  %13 = load i32, i32* %1, align 4
  %14 = icmp slt i32 %12, %13
  br i1 %14, label %15, label %29

15:                                               ; preds = %11
  %16 = load i32, i32* %3, align 4
  %17 = sext i32 %16 to i64
  %18 = getelementptr inbounds [50 x i32], [50 x i32]* %2, i64 0, i64 %17
  %19 = call i32 (i8*, ...) @__isoc99_scanf(i8* getelementptr inbounds ([3 x i8], [3 x i8]* @.str, i64 0, i64 0), i32* %18)
  %20 = load i32, i32* %3, align 4
  %21 = sext i32 %20 to i64
  %22 = getelementptr inbounds [50 x i32], [50 x i32]* %2, i64 0, i64 %21
  %23 = load i32, i32* %22, align 4
  %24 = load i32, i32* %5, align 4
  %25 = add nsw i32 %24, %23
  store i32 %25, i32* %5, align 4
  br label %26

26:                                               ; preds = %15
  %27 = load i32, i32* %3, align 4
  %28 = add nsw i32 %27, 1
  store i32 %28, i32* %3, align 4
  br label %11

29:                                               ; preds = %11
  %30 = load i32, i32* %5, align 4
  %31 = sitofp i32 %30 to float
  %32 = load i32, i32* %1, align 4
  %33 = sitofp i32 %32 to float
  %34 = fdiv float %31, %33
  store float %34, float* %7, align 4
  store i32 0, i32* %3, align 4
  br label %35

35:                                               ; preds = %78, %29
  %36 = load i32, i32* %3, align 4
  %37 = load i32, i32* %1, align 4
  %38 = sub nsw i32 %37, 1
  %39 = icmp slt i32 %36, %38
  br i1 %39, label %40, label %81

40:                                               ; preds = %35
  %41 = load i32, i32* %3, align 4
  %42 = add nsw i32 %41, 1
  store i32 %42, i32* %4, align 4
  br label %43

43:                                               ; preds = %74, %40
  %44 = load i32, i32* %4, align 4
  %45 = load i32, i32* %1, align 4
  %46 = icmp slt i32 %44, %45
  br i1 %46, label %47, label %77

47:                                               ; preds = %43
  %48 = load i32, i32* %4, align 4
  %49 = sext i32 %48 to i64
  %50 = getelementptr inbounds [50 x i32], [50 x i32]* %2, i64 0, i64 %49
  %51 = load i32, i32* %50, align 4
  %52 = load i32, i32* %3, align 4
  %53 = sext i32 %52 to i64
  %54 = getelementptr inbounds [50 x i32], [50 x i32]* %2, i64 0, i64 %53
  %55 = load i32, i32* %54, align 4
  %56 = icmp sgt i32 %51, %55
  br i1 %56, label %57, label %73

57:                                               ; preds = %47
  %58 = load i32, i32* %4, align 4
  %59 = sext i32 %58 to i64
  %60 = getelementptr inbounds [50 x i32], [50 x i32]* %2, i64 0, i64 %59
  %61 = load i32, i32* %60, align 4
  store i32 %61, i32* %6, align 4
  %62 = load i32, i32* %3, align 4
  %63 = sext i32 %62 to i64
  %64 = getelementptr inbounds [50 x i32], [50 x i32]* %2, i64 0, i64 %63
  %65 = load i32, i32* %64, align 4
  %66 = load i32, i32* %4, align 4
  %67 = sext i32 %66 to i64
  %68 = getelementptr inbounds [50 x i32], [50 x i32]* %2, i64 0, i64 %67
  store i32 %65, i32* %68, align 4
  %69 = load i32, i32* %6, align 4
  %70 = load i32, i32* %3, align 4
  %71 = sext i32 %70 to i64
  %72 = getelementptr inbounds [50 x i32], [50 x i32]* %2, i64 0, i64 %71
  store i32 %69, i32* %72, align 4
  br label %73

73:                                               ; preds = %57, %47
  br label %74

74:                                               ; preds = %73
  %75 = load i32, i32* %4, align 4
  %76 = add nsw i32 %75, 1
  store i32 %76, i32* %4, align 4
  br label %43

77:                                               ; preds = %43
  br label %78

78:                                               ; preds = %77
  %79 = load i32, i32* %3, align 4
  %80 = add nsw i32 %79, 1
  store i32 %80, i32* %3, align 4
  br label %35

81:                                               ; preds = %35
  %82 = load float, float* %7, align 4
  %83 = load i32, i32* %1, align 4
  %84 = sub nsw i32 %83, 1
  %85 = sext i32 %84 to i64
  %86 = getelementptr inbounds [50 x i32], [50 x i32]* %2, i64 0, i64 %85
  %87 = load i32, i32* %86, align 4
  %88 = sitofp i32 %87 to float
  %89 = fsub float %82, %88
  store float %89, float* %8, align 4
  %90 = getelementptr inbounds [50 x i32], [50 x i32]* %2, i64 0, i64 0
  %91 = load i32, i32* %90, align 16
  %92 = sitofp i32 %91 to float
  %93 = load float, float* %7, align 4
  %94 = fsub float %92, %93
  store float %94, float* %9, align 4
  %95 = load float, float* %8, align 4
  %96 = load float, float* %9, align 4
  %97 = fcmp ogt float %95, %96
  br i1 %97, label %98, label %105

98:                                               ; preds = %81
  %99 = load i32, i32* %1, align 4
  %100 = sub nsw i32 %99, 1
  %101 = sext i32 %100 to i64
  %102 = getelementptr inbounds [50 x i32], [50 x i32]* %2, i64 0, i64 %101
  %103 = load i32, i32* %102, align 4
  %104 = call i32 (i8*, ...) @printf(i8* getelementptr inbounds ([4 x i8], [4 x i8]* @.str.1, i64 0, i64 0), i32 %103)
  br label %123

105:                                              ; preds = %81
  %106 = load float, float* %9, align 4
  %107 = load float, float* %8, align 4
  %108 = fcmp ogt float %106, %107
  br i1 %108, label %109, label %113

109:                                              ; preds = %105
  %110 = getelementptr inbounds [50 x i32], [50 x i32]* %2, i64 0, i64 0
  %111 = load i32, i32* %110, align 16
  %112 = call i32 (i8*, ...) @printf(i8* getelementptr inbounds ([4 x i8], [4 x i8]* @.str.1, i64 0, i64 0), i32 %111)
  br label %122

113:                                              ; preds = %105
  %114 = load i32, i32* %1, align 4
  %115 = sub nsw i32 %114, 1
  %116 = sext i32 %115 to i64
  %117 = getelementptr inbounds [50 x i32], [50 x i32]* %2, i64 0, i64 %116
  %118 = load i32, i32* %117, align 4
  %119 = getelementptr inbounds [50 x i32], [50 x i32]* %2, i64 0, i64 0
  %120 = load i32, i32* %119, align 16
  %121 = call i32 (i8*, ...) @printf(i8* getelementptr inbounds ([7 x i8], [7 x i8]* @.str.2, i64 0, i64 0), i32 %118, i32 %120)
  br label %122

122:                                              ; preds = %113, %109
  br label %123

123:                                              ; preds = %122, %98
  ret void
}

declare dso_local i32 @__isoc99_scanf(i8*, ...) #1

declare dso_local i32 @printf(i8*, ...) #1


!llvm.module.flags = !{!0}
!llvm.ident = !{!1}

!0 = !{i32 1, !"wchar_size", i32 4}
!1 = !{!"clang version 10.0.0-4ubuntu1 "}
